target datalayout = "e-m:e-p270:32:32-p271:32:32-p272:64:64-i64:64-i128:128-f80:128-n8:16:32:64-S128"
target triple = "x86_64-pc-linux-gnu"

%struct.strbuf = type { i64, i64, ptr }
%struct.list_objects_filter_options = type { %struct.strbuf, i32, i8, ptr, i64, i64, i32, i64, i64, ptr }
%struct.option = type { i32, i32, ptr, ptr, ptr, ptr, i32, ptr, i64, ptr, i64, ptr }

; Function Attrs: inlinehint nounwind uwtable
define internal void @list_objects_filter_set_no_filter(ptr noundef %0) #4 {
  %2 = alloca ptr, align 8
  store ptr %0, ptr %2, align 8, !tbaa !8
  %3 = load ptr, ptr %2, align 8, !tbaa !8
  call void @list_objects_filter_release(ptr noundef %3)
  %4 = load ptr, ptr %2, align 8, !tbaa !8
  %5 = getelementptr inbounds nuw %struct.list_objects_filter_options, ptr %4, i32 0, i32 2
  %6 = load i8, ptr %5, align 4
  %7 = and i8 %6, -2
  %8 = or i8 %7, 1
  store i8 %8, ptr %5, align 4
  ret void
}

; Function Attrs: nounwind uwtable
define dso_local i32 @opt_parse_list_objects_filter(ptr noundef %0, ptr noundef %1, i32 noundef %2) #0 {
  %4 = alloca ptr, align 8
  %5 = alloca ptr, align 8
  %6 = alloca i32, align 4
  %7 = alloca ptr, align 8
  store ptr %0, ptr %4, align 8, !tbaa !38
  store ptr %1, ptr %5, align 8, !tbaa !11
  store i32 %2, ptr %6, align 4, !tbaa !4
  call void @llvm.lifetime.start.p0(i64 8, ptr %7) #10
  %8 = load ptr, ptr %4, align 8, !tbaa !38
  %9 = getelementptr inbounds nuw %struct.option, ptr %8, i32 0, i32 3
  %10 = load ptr, ptr %9, align 8, !tbaa !40
  store ptr %10, ptr %7, align 8, !tbaa !8
  %11 = load i32, ptr %6, align 4, !tbaa !4
  %12 = icmp ne i32 %11, 0
  br i1 %12, label %16, label %13

13:                                               ; preds = %3
  %14 = load ptr, ptr %5, align 8, !tbaa !11
  %15 = icmp ne ptr %14, null
  br i1 %15, label %18, label %16

16:                                               ; preds = %13, %3
  %17 = load ptr, ptr %7, align 8, !tbaa !8
  call void @list_objects_filter_set_no_filter(ptr noundef %17)
  br label %21

18:                                               ; preds = %13
  %19 = load ptr, ptr %7, align 8, !tbaa !8
  %20 = load ptr, ptr %5, align 8, !tbaa !11
  call void @parse_list_objects_filter(ptr noundef %19, ptr noundef %20)
  br label %21

21:                                               ; preds = %18, %16
  call void @llvm.lifetime.end.p0(i64 8, ptr %7) #10
  ret i32 0
}