; Function Attrs: nounwind uwtable
define dso_local noundef i32 @opt_parse_list_objects_filter(ptr noundef readonly captures(none) %0, ptr noundef %1, i32 noundef %2) local_unnamed_addr #0 {
  %4 = getelementptr inbounds nuw i8, ptr %0, i64 16
  %5 = load ptr, ptr %4, align 8, !tbaa !38
  %6 = icmp eq i32 %2, 0
  %7 = icmp ne ptr %1, null
  %or.cond = and i1 %7, %6
  br i1 %or.cond, label %12, label %8

8:                                                ; preds = %3
  tail call void @list_objects_filter_release(ptr noundef %5)
  %9 = getelementptr inbounds nuw i8, ptr %5, i64 28
  %10 = load i8, ptr %9, align 4
  %11 = or i8 %10, 1
  store i8 %11, ptr %9, align 4
  br label %13

12:                                               ; preds = %3
  tail call void @parse_list_objects_filter(ptr noundef %5, ptr noundef nonnull %1)
  br label %13

13:                                               ; preds = %12, %8
  ret i32 0
}